target datalayout = "e-m:e-p270:32:32-p271:32:32-p272:64:64-i64:64-i128:128-f80:128-n8:16:32:64-S128"
target triple = "x86_64-pc-linux-gnu"

; Function Attrs: inlinehint nounwind uwtable
define internal void @yuy2toyv12_c(ptr noundef %0, ptr noundef %1, ptr noundef %2, ptr noundef %3, i32 noundef %4, i32 noundef %5, i32 noundef %6, i32 noundef %7, i32 noundef %8) #4 {
  %10 = alloca ptr, align 8
  %11 = alloca ptr, align 8
  %12 = alloca ptr, align 8
  %13 = alloca ptr, align 8
  %14 = alloca i32, align 4
  %15 = alloca i32, align 4
  %16 = alloca i32, align 4
  %17 = alloca i32, align 4
  %18 = alloca i32, align 4
  %19 = alloca i32, align 4
  %20 = alloca i32, align 4
  %21 = alloca i32, align 4
  store ptr %0, ptr %10, align 8, !tbaa !4
  store ptr %1, ptr %11, align 8, !tbaa !4
  store ptr %2, ptr %12, align 8, !tbaa !4
  store ptr %3, ptr %13, align 8, !tbaa !4
  store i32 %4, ptr %14, align 4, !tbaa !9
  store i32 %5, ptr %15, align 4, !tbaa !9
  store i32 %6, ptr %16, align 4, !tbaa !9
  store i32 %7, ptr %17, align 4, !tbaa !9
  store i32 %8, ptr %18, align 4, !tbaa !9
  call void @llvm.lifetime.start.p0(i64 4, ptr %19) #5
  call void @llvm.lifetime.start.p0(i64 4, ptr %20) #5
  %22 = load i32, ptr %14, align 4, !tbaa !9
  %23 = ashr i32 %22, 1
  store i32 %23, ptr %20, align 4, !tbaa !9
  store i32 0, ptr %19, align 4, !tbaa !9
  br label %24

24:                                               ; preds = %145, %9
  %25 = load i32, ptr %19, align 4, !tbaa !9
  %26 = load i32, ptr %15, align 4, !tbaa !9
  %27 = icmp slt i32 %25, %26
  br i1 %27, label %28, label %148

28:                                               ; preds = %24
  call void @llvm.lifetime.start.p0(i64 4, ptr %21) #5
  store i32 0, ptr %21, align 4, !tbaa !9
  br label %29

29:                                               ; preds = %82, %28
  %30 = load i32, ptr %21, align 4, !tbaa !9
  %31 = load i32, ptr %20, align 4, !tbaa !9
  %32 = icmp slt i32 %30, %31
  br i1 %32, label %33, label %85

33:                                               ; preds = %29
  %34 = load ptr, ptr %10, align 8, !tbaa !4
  %35 = load i32, ptr %21, align 4, !tbaa !9
  %36 = mul nsw i32 4, %35
  %37 = add nsw i32 %36, 0
  %38 = sext i32 %37 to i64
  %39 = getelementptr inbounds i8, ptr %34, i64 %38
  %40 = load i8, ptr %39, align 1, !tbaa !13
  %41 = load ptr, ptr %11, align 8, !tbaa !4
  %42 = load i32, ptr %21, align 4, !tbaa !9
  %43 = mul nsw i32 2, %42
  %44 = add nsw i32 %43, 0
  %45 = sext i32 %44 to i64
  %46 = getelementptr inbounds i8, ptr %41, i64 %45
  store i8 %40, ptr %46, align 1, !tbaa !13
  %47 = load ptr, ptr %10, align 8, !tbaa !4
  %48 = load i32, ptr %21, align 4, !tbaa !9
  %49 = mul nsw i32 4, %48
  %50 = add nsw i32 %49, 1
  %51 = sext i32 %50 to i64
  %52 = getelementptr inbounds i8, ptr %47, i64 %51
  %53 = load i8, ptr %52, align 1, !tbaa !13
  %54 = load ptr, ptr %12, align 8, !tbaa !4
  %55 = load i32, ptr %21, align 4, !tbaa !9
  %56 = sext i32 %55 to i64
  %57 = getelementptr inbounds i8, ptr %54, i64 %56
  store i8 %53, ptr %57, align 1, !tbaa !13
  %58 = load ptr, ptr %10, align 8, !tbaa !4
  %59 = load i32, ptr %21, align 4, !tbaa !9
  %60 = mul nsw i32 4, %59
  %61 = add nsw i32 %60, 2
  %62 = sext i32 %61 to i64
  %63 = getelementptr inbounds i8, ptr %58, i64 %62
  %64 = load i8, ptr %63, align 1, !tbaa !13
  %65 = load ptr, ptr %11, align 8, !tbaa !4
  %66 = load i32, ptr %21, align 4, !tbaa !9
  %67 = mul nsw i32 2, %66
  %68 = add nsw i32 %67, 1
  %69 = sext i32 %68 to i64
  %70 = getelementptr inbounds i8, ptr %65, i64 %69
  store i8 %64, ptr %70, align 1, !tbaa !13
  %71 = load ptr, ptr %10, align 8, !tbaa !4
  %72 = load i32, ptr %21, align 4, !tbaa !9
  %73 = mul nsw i32 4, %72
  %74 = add nsw i32 %73, 3
  %75 = sext i32 %74 to i64
  %76 = getelementptr inbounds i8, ptr %71, i64 %75
  %77 = load i8, ptr %76, align 1, !tbaa !13
  %78 = load ptr, ptr %13, align 8, !tbaa !4
  %79 = load i32, ptr %21, align 4, !tbaa !9
  %80 = sext i32 %79 to i64
  %81 = getelementptr inbounds i8, ptr %78, i64 %80
  store i8 %77, ptr %81, align 1, !tbaa !13
  br label %82

82:                                               ; preds = %33
  %83 = load i32, ptr %21, align 4, !tbaa !9
  %84 = add nsw i32 %83, 1
  store i32 %84, ptr %21, align 4, !tbaa !9
  br label %29, !llvm.loop !78

85:                                               ; preds = %29
  %86 = load i32, ptr %16, align 4, !tbaa !9
  %87 = load ptr, ptr %11, align 8, !tbaa !4
  %88 = sext i32 %86 to i64
  %89 = getelementptr inbounds i8, ptr %87, i64 %88
  store ptr %89, ptr %11, align 8, !tbaa !4
  %90 = load i32, ptr %18, align 4, !tbaa !9
  %91 = load ptr, ptr %10, align 8, !tbaa !4
  %92 = sext i32 %90 to i64
  %93 = getelementptr inbounds i8, ptr %91, i64 %92
  store ptr %93, ptr %10, align 8, !tbaa !4
  store i32 0, ptr %21, align 4, !tbaa !9
  br label %94

94:                                               ; preds = %125, %85
  %95 = load i32, ptr %21, align 4, !tbaa !9
  %96 = load i32, ptr %20, align 4, !tbaa !9
  %97 = icmp slt i32 %95, %96
  br i1 %97, label %98, label %128

98:                                               ; preds = %94
  %99 = load ptr, ptr %10, align 8, !tbaa !4
  %100 = load i32, ptr %21, align 4, !tbaa !9
  %101 = mul nsw i32 4, %100
  %102 = add nsw i32 %101, 0
  %103 = sext i32 %102 to i64
  %104 = getelementptr inbounds i8, ptr %99, i64 %103
  %105 = load i8, ptr %104, align 1, !tbaa !13
  %106 = load ptr, ptr %11, align 8, !tbaa !4
  %107 = load i32, ptr %21, align 4, !tbaa !9
  %108 = mul nsw i32 2, %107
  %109 = add nsw i32 %108, 0
  %110 = sext i32 %109 to i64
  %111 = getelementptr inbounds i8, ptr %106, i64 %110
  store i8 %105, ptr %111, align 1, !tbaa !13
  %112 = load ptr, ptr %10, align 8, !tbaa !4
  %113 = load i32, ptr %21, align 4, !tbaa !9
  %114 = mul nsw i32 4, %113
  %115 = add nsw i32 %114, 2
  %116 = sext i32 %115 to i64
  %117 = getelementptr inbounds i8, ptr %112, i64 %116
  %118 = load i8, ptr %117, align 1, !tbaa !13
  %119 = load ptr, ptr %11, align 8, !tbaa !4
  %120 = load i32, ptr %21, align 4, !tbaa !9
  %121 = mul nsw i32 2, %120
  %122 = add nsw i32 %121, 1
  %123 = sext i32 %122 to i64
  %124 = getelementptr inbounds i8, ptr %119, i64 %123
  store i8 %118, ptr %124, align 1, !tbaa !13
  br label %125

125:                                              ; preds = %98
  %126 = load i32, ptr %21, align 4, !tbaa !9
  %127 = add nsw i32 %126, 1
  store i32 %127, ptr %21, align 4, !tbaa !9
  br label %94, !llvm.loop !79

128:                                              ; preds = %94
  %129 = load i32, ptr %17, align 4, !tbaa !9
  %130 = load ptr, ptr %12, align 8, !tbaa !4
  %131 = sext i32 %129 to i64
  %132 = getelementptr inbounds i8, ptr %130, i64 %131
  store ptr %132, ptr %12, align 8, !tbaa !4
  %133 = load i32, ptr %17, align 4, !tbaa !9
  %134 = load ptr, ptr %13, align 8, !tbaa !4
  %135 = sext i32 %133 to i64
  %136 = getelementptr inbounds i8, ptr %134, i64 %135
  store ptr %136, ptr %13, align 8, !tbaa !4
  %137 = load i32, ptr %16, align 4, !tbaa !9
  %138 = load ptr, ptr %11, align 8, !tbaa !4
  %139 = sext i32 %137 to i64
  %140 = getelementptr inbounds i8, ptr %138, i64 %139
  store ptr %140, ptr %11, align 8, !tbaa !4
  %141 = load i32, ptr %18, align 4, !tbaa !9
  %142 = load ptr, ptr %10, align 8, !tbaa !4
  %143 = sext i32 %141 to i64
  %144 = getelementptr inbounds i8, ptr %142, i64 %143
  store ptr %144, ptr %10, align 8, !tbaa !4
  call void @llvm.lifetime.end.p0(i64 4, ptr %21) #5
  br label %145

145:                                              ; preds = %128
  %146 = load i32, ptr %19, align 4, !tbaa !9
  %147 = add nsw i32 %146, 2
  store i32 %147, ptr %19, align 4, !tbaa !9
  br label %24, !llvm.loop !80

148:                                              ; preds = %24
  call void @llvm.lifetime.end.p0(i64 4, ptr %20) #5
  call void @llvm.lifetime.end.p0(i64 4, ptr %19) #5
  ret void
}