; Function Attrs: inlinehint nofree norecurse nosync nounwind memory(argmem: readwrite) uwtable
define internal void @yuy2toyv12_c(ptr noundef readonly captures(none) %0, ptr noundef writeonly captures(none) %1, ptr noundef writeonly captures(none) %2, ptr noundef writeonly captures(none) %3, i32 noundef %4, i32 noundef %5, i32 noundef %6, i32 noundef %7, i32 noundef %8) #3 {
  %10 = ashr i32 %4, 1
  %11 = icmp sgt i32 %5, 0
  br i1 %11, label %.preheader.lr.ph, label %._crit_edge61

.preheader.lr.ph:                                 ; preds = %9
  %12 = icmp sgt i32 %10, 0
  %13 = sext i32 %6 to i64
  %14 = sext i32 %8 to i64
  %15 = sext i32 %7 to i64
  br i1 %12, label %.preheader.us.us.preheader, label %._crit_edge61

.preheader.us.us.preheader:                       ; preds = %.preheader.lr.ph
  %wide.trip.count = zext nneg i32 %10 to i64
  br label %.preheader.us.us

.preheader.us.us:                                 ; preds = %.preheader.us.us.preheader, %._crit_edge55.us.us
  %.04560.us.us = phi ptr [ %45, %._crit_edge55.us.us ], [ %0, %.preheader.us.us.preheader ]
  %.04659.us.us = phi i32 [ %46, %._crit_edge55.us.us ], [ 0, %.preheader.us.us.preheader ]
  %.04758.us.us = phi ptr [ %44, %._crit_edge55.us.us ], [ %1, %.preheader.us.us.preheader ]
  %.04857.us.us = phi ptr [ %42, %._crit_edge55.us.us ], [ %2, %.preheader.us.us.preheader ]
  %.04956.us.us = phi ptr [ %43, %._crit_edge55.us.us ], [ %3, %.preheader.us.us.preheader ]
  br label %25

16:                                               ; preds = %._crit_edge.us.us, %16
  %indvars.iv73 = phi i64 [ 0, %._crit_edge.us.us ], [ %indvars.iv.next74, %16 ]
  %17 = shl nsw i64 %indvars.iv73, 2
  %18 = getelementptr inbounds nuw i8, ptr %41, i64 %17
  %19 = load i8, ptr %18, align 1, !tbaa !8
  %20 = shl nuw nsw i64 %indvars.iv73, 1
  %21 = getelementptr inbounds nuw i8, ptr %40, i64 %20
  store i8 %19, ptr %21, align 1, !tbaa !8
  %22 = getelementptr inbounds nuw i8, ptr %18, i64 2
  %23 = load i8, ptr %22, align 1, !tbaa !8
  %24 = getelementptr inbounds nuw i8, ptr %21, i64 1
  store i8 %23, ptr %24, align 1, !tbaa !8
  %indvars.iv.next74 = add nuw nsw i64 %indvars.iv73, 1
  %exitcond77.not = icmp eq i64 %indvars.iv.next74, %wide.trip.count
  br i1 %exitcond77.not, label %._crit_edge55.us.us, label %16, !llvm.loop !76

25:                                               ; preds = %25, %.preheader.us.us
  %indvars.iv = phi i64 [ %indvars.iv.next, %25 ], [ 0, %.preheader.us.us ]
  %26 = shl nsw i64 %indvars.iv, 2
  %27 = getelementptr inbounds nuw i8, ptr %.04560.us.us, i64 %26
  %28 = load i8, ptr %27, align 1, !tbaa !8
  %29 = shl nuw nsw i64 %indvars.iv, 1
  %30 = getelementptr inbounds nuw i8, ptr %.04758.us.us, i64 %29
  store i8 %28, ptr %30, align 1, !tbaa !8
  %31 = getelementptr inbounds nuw i8, ptr %27, i64 1
  %32 = load i8, ptr %31, align 1, !tbaa !8
  %33 = getelementptr inbounds nuw i8, ptr %.04857.us.us, i64 %indvars.iv
  store i8 %32, ptr %33, align 1, !tbaa !8
  %34 = getelementptr inbounds nuw i8, ptr %27, i64 2
  %35 = load i8, ptr %34, align 1, !tbaa !8
  %36 = getelementptr inbounds nuw i8, ptr %30, i64 1
  store i8 %35, ptr %36, align 1, !tbaa !8
  %37 = getelementptr inbounds nuw i8, ptr %27, i64 3
  %38 = load i8, ptr %37, align 1, !tbaa !8
  %39 = getelementptr inbounds nuw i8, ptr %.04956.us.us, i64 %indvars.iv
  store i8 %38, ptr %39, align 1, !tbaa !8
  %indvars.iv.next = add nuw nsw i64 %indvars.iv, 1
  %exitcond.not = icmp eq i64 %indvars.iv.next, %wide.trip.count
  br i1 %exitcond.not, label %._crit_edge.us.us, label %25, !llvm.loop !77

._crit_edge.us.us:                                ; preds = %25
  %40 = getelementptr inbounds i8, ptr %.04758.us.us, i64 %13
  %41 = getelementptr inbounds i8, ptr %.04560.us.us, i64 %14
  br label %16

._crit_edge55.us.us:                              ; preds = %16
  %42 = getelementptr inbounds i8, ptr %.04857.us.us, i64 %15
  %43 = getelementptr inbounds i8, ptr %.04956.us.us, i64 %15
  %44 = getelementptr inbounds i8, ptr %40, i64 %13
  %45 = getelementptr inbounds i8, ptr %41, i64 %14
  %46 = add nuw nsw i32 %.04659.us.us, 2
  %47 = icmp slt i32 %46, %5
  br i1 %47, label %.preheader.us.us, label %._crit_edge61, !llvm.loop !78

._crit_edge61:                                    ; preds = %._crit_edge55.us.us, %.preheader.lr.ph, %9
  ret void
}